; Function Attrs: nofree norecurse nosync nounwind memory(argmem: read) uwtable
define internal i32 @VectorMismatch_C(ptr nocapture noundef readonly %0, ptr nocapture noundef readonly %1, i32 noundef %2) #9 {
  %4 = icmp sgt i32 %2, 0
  br i1 %4, label %.lr.ph.preheader, label %.critedge

.lr.ph.preheader:                                 ; preds = %3
  %wide.trip.count = zext nneg i32 %2 to i64
  br label %.lr.ph

.lr.ph:                                           ; preds = %.lr.ph.preheader, %10
  %indvars.iv = phi i64 [ 0, %.lr.ph.preheader ], [ %indvars.iv.next, %10 ]
  %5 = getelementptr inbounds i32, ptr %0, i64 %indvars.iv
  %6 = load i32, ptr %5, align 4
  %7 = getelementptr inbounds i32, ptr %1, i64 %indvars.iv
  %8 = load i32, ptr %7, align 4
  %9 = icmp eq i32 %6, %8
  br i1 %9, label %10, label %.critedge.loopexit.split.loop.exit11

10:                                               ; preds = %.lr.ph
  %indvars.iv.next = add nuw nsw i64 %indvars.iv, 1
  %exitcond.not = icmp eq i64 %indvars.iv.next, %wide.trip.count
  br i1 %exitcond.not, label %.critedge, label %.lr.ph, !llvm.loop !23

.critedge.loopexit.split.loop.exit11:             ; preds = %.lr.ph
  %11 = trunc nuw nsw i64 %indvars.iv to i32
  br label %.critedge

.critedge:                                        ; preds = %10, %.critedge.loopexit.split.loop.exit11, %3
  %.0.lcssa = phi i32 [ 0, %3 ], [ %11, %.critedge.loopexit.split.loop.exit11 ], [ %2, %10 ]
  ret i32 %.0.lcssa
}